; Function Attrs: mustprogress nofree norecurse nosync nounwind willreturn memory(readwrite, inaccessiblemem: none) uwtable
define internal void @densmatr_calcExpecDiagonalOpLocal.omp_outlined.omp.reduction.reduction_func(ptr noundef readonly captures(none) %0, ptr noundef readonly captures(none) %1) #8 {
  %3 = load ptr, ptr %1, align 8
  %4 = load ptr, ptr %0, align 8
  %5 = getelementptr inbounds nuw i8, ptr %1, i64 8
  %6 = load ptr, ptr %5, align 8
  %7 = getelementptr inbounds nuw i8, ptr %0, i64 8
  %8 = load ptr, ptr %7, align 8
  %9 = load double, ptr %4, align 8, !tbaa !4
  %10 = load double, ptr %3, align 8, !tbaa !4
  %11 = fadd double %9, %10
  store double %11, ptr %4, align 8, !tbaa !4
  %12 = load double, ptr %8, align 8, !tbaa !4
  %13 = load double, ptr %6, align 8, !tbaa !4
  %14 = fadd double %12, %13
  store double %14, ptr %8, align 8, !tbaa !4
  ret void
}